; Function Attrs: mustprogress nofree norecurse nosync nounwind willreturn memory(read, inaccessiblemem: none) uwtable
define noundef i32 @_Z17dd_pme_maxshift_xRK12gmx_domdec_t(ptr noundef nonnull readonly align 8 captures(none) dereferenceable(1072) %0) local_unnamed_addr #13 {
  %2 = getelementptr inbounds nuw i8, ptr %0, i64 912
  %3 = load ptr, ptr %2, align 8, !tbaa !8
  %4 = getelementptr inbounds nuw i8, ptr %3, i64 72
  %5 = load i32, ptr %4, align 8, !tbaa !338
  %6 = icmp eq i32 %5, 0
  br i1 %6, label %7, label %10

7:                                                ; preds = %1
  %8 = getelementptr inbounds nuw i8, ptr %3, i64 160
  %9 = load i32, ptr %8, align 8, !tbaa !340
  br label %10

10:                                               ; preds = %1, %7
  %.0 = phi i32 [ %9, %7 ], [ 0, %1 ]
  ret i32 %.0
}